target datalayout = "e-m:e-p270:32:32-p271:32:32-p272:64:64-i64:64-i128:128-f80:128-n8:16:32:64-S128"
target triple = "x86_64-pc-linux-gnu"

%struct.quic_rcidm_st = type { %struct.quic_conn_id_st, %struct.quic_conn_id_st, %struct.quic_conn_id_st, i64, i64, i64, ptr, ptr, %struct.ossl_list_st_retiring, i64, i8 }
%struct.quic_conn_id_st = type { i8, [20 x i8] }
%struct.ossl_list_st_retiring = type { ptr, ptr, i64 }
%struct.rcid_st = type { %struct.anon, %struct.quic_conn_id_st, i64, i64, i8 }
%struct.anon = type { ptr, ptr }

; Function Attrs: inlinehint nounwind uwtable
define internal void @ossl_list_retiring_insert_tail(ptr noundef %0, ptr noundef %1) #3 {
  %3 = alloca ptr, align 8
  %4 = alloca ptr, align 8
  store ptr %0, ptr %3, align 8, !tbaa !30
  store ptr %1, ptr %4, align 8, !tbaa !21
  %5 = load ptr, ptr %3, align 8, !tbaa !30
  %6 = getelementptr inbounds nuw %struct.ossl_list_st_retiring, ptr %5, i32 0, i32 1
  %7 = load ptr, ptr %6, align 8, !tbaa !50
  %8 = icmp ne ptr %7, null
  br i1 %8, label %9, label %16

9:                                                ; preds = %2
  %10 = load ptr, ptr %4, align 8, !tbaa !21
  %11 = load ptr, ptr %3, align 8, !tbaa !30
  %12 = getelementptr inbounds nuw %struct.ossl_list_st_retiring, ptr %11, i32 0, i32 1
  %13 = load ptr, ptr %12, align 8, !tbaa !50
  %14 = getelementptr inbounds nuw %struct.rcid_st, ptr %13, i32 0, i32 0
  %15 = getelementptr inbounds nuw %struct.anon, ptr %14, i32 0, i32 0
  store ptr %10, ptr %15, align 8, !tbaa !33
  br label %16

16:                                               ; preds = %9, %2
  %17 = load ptr, ptr %3, align 8, !tbaa !30
  %18 = getelementptr inbounds nuw %struct.ossl_list_st_retiring, ptr %17, i32 0, i32 1
  %19 = load ptr, ptr %18, align 8, !tbaa !50
  %20 = load ptr, ptr %4, align 8, !tbaa !21
  %21 = getelementptr inbounds nuw %struct.rcid_st, ptr %20, i32 0, i32 0
  %22 = getelementptr inbounds nuw %struct.anon, ptr %21, i32 0, i32 1
  store ptr %19, ptr %22, align 8, !tbaa !51
  %23 = load ptr, ptr %4, align 8, !tbaa !21
  %24 = getelementptr inbounds nuw %struct.rcid_st, ptr %23, i32 0, i32 0
  %25 = getelementptr inbounds nuw %struct.anon, ptr %24, i32 0, i32 0
  store ptr null, ptr %25, align 8, !tbaa !33
  %26 = load ptr, ptr %4, align 8, !tbaa !21
  %27 = load ptr, ptr %3, align 8, !tbaa !30
  %28 = getelementptr inbounds nuw %struct.ossl_list_st_retiring, ptr %27, i32 0, i32 1
  store ptr %26, ptr %28, align 8, !tbaa !50
  %29 = load ptr, ptr %3, align 8, !tbaa !30
  %30 = getelementptr inbounds nuw %struct.ossl_list_st_retiring, ptr %29, i32 0, i32 0
  %31 = load ptr, ptr %30, align 8, !tbaa !32
  %32 = icmp eq ptr %31, null
  br i1 %32, label %33, label %37

33:                                               ; preds = %16
  %34 = load ptr, ptr %4, align 8, !tbaa !21
  %35 = load ptr, ptr %3, align 8, !tbaa !30
  %36 = getelementptr inbounds nuw %struct.ossl_list_st_retiring, ptr %35, i32 0, i32 0
  store ptr %34, ptr %36, align 8, !tbaa !32
  br label %37

37:                                               ; preds = %33, %16
  %38 = load ptr, ptr %3, align 8, !tbaa !30
  %39 = getelementptr inbounds nuw %struct.ossl_list_st_retiring, ptr %38, i32 0, i32 2
  %40 = load i64, ptr %39, align 8, !tbaa !52
  %41 = add i64 %40, 1
  store i64 %41, ptr %39, align 8, !tbaa !52
  ret void
}

; Function Attrs: inlinehint nounwind uwtable
define internal ptr @ossl_pqueue_RCID_remove(ptr noundef %0, i64 noundef %1) #3 {
  %3 = alloca ptr, align 8
  %4 = alloca i64, align 8
  store ptr %0, ptr %3, align 8, !tbaa !29
  store i64 %1, ptr %4, align 8, !tbaa !34
  %5 = load ptr, ptr %3, align 8, !tbaa !29
  %6 = load i64, ptr %4, align 8, !tbaa !34
  %7 = call ptr @ossl_pqueue_remove(ptr noundef %5, i64 noundef %6)
  ret ptr %7
}

; Function Attrs: nounwind uwtable
define internal void @rcidm_check_rcid(ptr noundef %0, ptr noundef %1) #0 {
  %3 = alloca ptr, align 8
  %4 = alloca ptr, align 8
  store ptr %0, ptr %3, align 8, !tbaa !8
  store ptr %1, ptr %4, align 8, !tbaa !21
  ret void
}

; Function Attrs: nounwind uwtable
define internal void @rcidm_transition_rcid(ptr noundef %0, ptr noundef %1, i32 noundef %2) #0 {
  %4 = alloca ptr, align 8
  %5 = alloca ptr, align 8
  %6 = alloca i32, align 4
  %7 = alloca i32, align 4
  %8 = alloca i32, align 4
  store ptr %0, ptr %4, align 8, !tbaa !8
  store ptr %1, ptr %5, align 8, !tbaa !21
  store i32 %2, ptr %6, align 4, !tbaa !36
  call void @llvm.lifetime.start.p0(i64 4, ptr %7) #7
  %9 = load ptr, ptr %5, align 8, !tbaa !21
  %10 = getelementptr inbounds nuw %struct.rcid_st, ptr %9, i32 0, i32 4
  %11 = load i8, ptr %10, align 8
  %12 = and i8 %11, 3
  %13 = zext i8 %12 to i32
  store i32 %13, ptr %7, align 4, !tbaa !36
  %14 = load ptr, ptr %4, align 8, !tbaa !8
  %15 = load ptr, ptr %5, align 8, !tbaa !21
  call void @rcidm_check_rcid(ptr noundef %14, ptr noundef %15)
  %16 = load i32, ptr %6, align 4, !tbaa !36
  %17 = load i32, ptr %7, align 4, !tbaa !36
  %18 = icmp eq i32 %16, %17
  br i1 %18, label %19, label %20

19:                                               ; preds = %3
  store i32 1, ptr %8, align 4
  br label %82

20:                                               ; preds = %3
  %21 = load ptr, ptr %4, align 8, !tbaa !8
  %22 = getelementptr inbounds nuw %struct.quic_rcidm_st, ptr %21, i32 0, i32 7
  %23 = load ptr, ptr %22, align 8, !tbaa !25
  %24 = icmp ne ptr %23, null
  br i1 %24, label %25, label %33

25:                                               ; preds = %20
  %26 = load i32, ptr %6, align 4, !tbaa !36
  %27 = icmp eq i32 %26, 1
  br i1 %27, label %28, label %33

28:                                               ; preds = %25
  %29 = load ptr, ptr %4, align 8, !tbaa !8
  %30 = load ptr, ptr %4, align 8, !tbaa !8
  %31 = getelementptr inbounds nuw %struct.quic_rcidm_st, ptr %30, i32 0, i32 7
  %32 = load ptr, ptr %31, align 8, !tbaa !25
  call void @rcidm_transition_rcid(ptr noundef %29, ptr noundef %32, i32 noundef 2)
  br label %33

33:                                               ; preds = %28, %25, %20
  %34 = load i32, ptr %7, align 4, !tbaa !36
  %35 = icmp eq i32 %34, 0
  br i1 %35, label %36, label %46

36:                                               ; preds = %33
  %37 = load ptr, ptr %4, align 8, !tbaa !8
  %38 = getelementptr inbounds nuw %struct.quic_rcidm_st, ptr %37, i32 0, i32 6
  %39 = load ptr, ptr %38, align 8, !tbaa !10
  %40 = load ptr, ptr %5, align 8, !tbaa !21
  %41 = getelementptr inbounds nuw %struct.rcid_st, ptr %40, i32 0, i32 3
  %42 = load i64, ptr %41, align 8, !tbaa !40
  %43 = call ptr @ossl_pqueue_RCID_remove(ptr noundef %39, i64 noundef %42)
  %44 = load ptr, ptr %5, align 8, !tbaa !21
  %45 = getelementptr inbounds nuw %struct.rcid_st, ptr %44, i32 0, i32 3
  store i64 -1, ptr %45, align 8, !tbaa !40
  br label %46

46:                                               ; preds = %36, %33
  %47 = load i32, ptr %6, align 4, !tbaa !36
  %48 = load ptr, ptr %5, align 8, !tbaa !21
  %49 = getelementptr inbounds nuw %struct.rcid_st, ptr %48, i32 0, i32 4
  %50 = trunc i32 %47 to i8
  %51 = load i8, ptr %49, align 8
  %52 = and i8 %50, 3
  %53 = and i8 %51, -4
  %54 = or i8 %53, %52
  store i8 %54, ptr %49, align 8
  %55 = load i32, ptr %6, align 4, !tbaa !36
  %56 = icmp eq i32 %55, 1
  br i1 %56, label %57, label %61

57:                                               ; preds = %46
  %58 = load ptr, ptr %5, align 8, !tbaa !21
  %59 = load ptr, ptr %4, align 8, !tbaa !8
  %60 = getelementptr inbounds nuw %struct.quic_rcidm_st, ptr %59, i32 0, i32 7
  store ptr %58, ptr %60, align 8, !tbaa !25
  br label %79

61:                                               ; preds = %46
  %62 = load i32, ptr %6, align 4, !tbaa !36
  %63 = icmp eq i32 %62, 2
  br i1 %63, label %64, label %78

64:                                               ; preds = %61
  %65 = load i32, ptr %7, align 4, !tbaa !36
  %66 = icmp eq i32 %65, 1
  br i1 %66, label %67, label %70

67:                                               ; preds = %64
  %68 = load ptr, ptr %4, align 8, !tbaa !8
  %69 = getelementptr inbounds nuw %struct.quic_rcidm_st, ptr %68, i32 0, i32 7
  store ptr null, ptr %69, align 8, !tbaa !25
  br label %70

70:                                               ; preds = %67, %64
  %71 = load ptr, ptr %4, align 8, !tbaa !8
  %72 = getelementptr inbounds nuw %struct.quic_rcidm_st, ptr %71, i32 0, i32 8
  %73 = load ptr, ptr %5, align 8, !tbaa !21
  call void @ossl_list_retiring_insert_tail(ptr noundef %72, ptr noundef %73)
  %74 = load ptr, ptr %4, align 8, !tbaa !8
  %75 = getelementptr inbounds nuw %struct.quic_rcidm_st, ptr %74, i32 0, i32 9
  %76 = load i64, ptr %75, align 8, !tbaa !38
  %77 = add i64 %76, 1
  store i64 %77, ptr %75, align 8, !tbaa !38
  br label %78

78:                                               ; preds = %70, %61
  br label %79

79:                                               ; preds = %78, %57
  %80 = load ptr, ptr %4, align 8, !tbaa !8
  %81 = load ptr, ptr %5, align 8, !tbaa !21
  call void @rcidm_check_rcid(ptr noundef %80, ptr noundef %81)
  store i32 0, ptr %8, align 4
  br label %82

82:                                               ; preds = %79, %19
  call void @llvm.lifetime.end.p0(i64 4, ptr %7) #7
  %83 = load i32, ptr %8, align 4
  switch i32 %83, label %85 [
    i32 0, label %84
    i32 1, label %84
  ]

84:                                               ; preds = %82, %82
  ret void

85:                                               ; preds = %82
  unreachable
}