; Function Attrs: nounwind uwtable
define internal fastcc void @rcidm_transition_rcid(ptr noundef captures(none) %0, ptr noundef nonnull %1, i32 noundef range(i32 1, 3) %2) unnamed_addr #0 {
  %4 = getelementptr inbounds nuw i8, ptr %1, i64 56
  %5 = load i8, ptr %4, align 8
  %6 = and i8 %5, 3
  %7 = zext nneg i8 %6 to i32
  %8 = icmp eq i32 %2, %7
  br i1 %8, label %81, label %9

9:                                                ; preds = %3
  %10 = getelementptr inbounds nuw i8, ptr %0, i64 96
  %11 = load ptr, ptr %10, align 8, !tbaa !19
  %12 = icmp ne ptr %11, null
  %13 = icmp eq i32 %2, 1
  %or.cond = and i1 %13, %12
  br i1 %or.cond, label %14, label %rcidm_transition_rcid.exit

14:                                               ; preds = %9
  %15 = getelementptr inbounds nuw i8, ptr %11, i64 56
  %16 = load i8, ptr %15, align 8
  %17 = and i8 %16, 3
  switch i8 %17, label %26 [
    i8 2, label %rcidm_transition_rcid.exit
    i8 0, label %.thread
  ]

.thread:                                          ; preds = %14
  %18 = getelementptr inbounds nuw i8, ptr %0, i64 88
  %19 = load ptr, ptr %18, align 8, !tbaa !3
  %20 = getelementptr inbounds nuw i8, ptr %11, i64 48
  %21 = load i64, ptr %20, align 8, !tbaa !30
  %22 = tail call ptr @ossl_pqueue_remove(ptr noundef %19, i64 noundef %21) #9
  store i64 -1, ptr %20, align 8, !tbaa !30
  %23 = load i8, ptr %15, align 8
  %24 = and i8 %23, -4
  %25 = or disjoint i8 %24, 2
  store i8 %25, ptr %15, align 8
  br label %31

26:                                               ; preds = %14
  %27 = and i8 %16, -4
  %28 = or disjoint i8 %27, 2
  store i8 %28, ptr %15, align 8
  %29 = icmp eq i8 %17, 1
  br i1 %29, label %30, label %31

30:                                               ; preds = %26
  store ptr null, ptr %10, align 8, !tbaa !19
  br label %31

31:                                               ; preds = %.thread, %30, %26
  %32 = getelementptr inbounds nuw i8, ptr %0, i64 104
  %33 = getelementptr inbounds nuw i8, ptr %0, i64 112
  %34 = load ptr, ptr %33, align 8, !tbaa !31
  %.not.i28 = icmp eq ptr %34, null
  br i1 %.not.i28, label %36, label %35

35:                                               ; preds = %31
  store ptr %11, ptr %34, align 8, !tbaa !24
  br label %36

36:                                               ; preds = %35, %31
  %37 = getelementptr inbounds nuw i8, ptr %11, i64 8
  store ptr %34, ptr %37, align 8, !tbaa !32
  store ptr null, ptr %11, align 8, !tbaa !24
  store ptr %11, ptr %33, align 8, !tbaa !31
  %38 = load ptr, ptr %32, align 8, !tbaa !23
  %39 = icmp eq ptr %38, null
  br i1 %39, label %40, label %ossl_list_retiring_insert_tail.exit29

40:                                               ; preds = %36
  store ptr %11, ptr %32, align 8, !tbaa !23
  br label %ossl_list_retiring_insert_tail.exit29

ossl_list_retiring_insert_tail.exit29:            ; preds = %36, %40
  %41 = getelementptr inbounds nuw i8, ptr %0, i64 120
  %42 = load i64, ptr %41, align 8, !tbaa !33
  %43 = add i64 %42, 1
  store i64 %43, ptr %41, align 8, !tbaa !33
  %44 = getelementptr inbounds nuw i8, ptr %0, i64 128
  %45 = load i64, ptr %44, align 8, !tbaa !28
  %46 = add i64 %45, 1
  store i64 %46, ptr %44, align 8, !tbaa !28
  br label %rcidm_transition_rcid.exit

rcidm_transition_rcid.exit:                       ; preds = %14, %ossl_list_retiring_insert_tail.exit29, %9
  %47 = icmp eq i8 %6, 0
  br i1 %47, label %.thread30, label %48

48:                                               ; preds = %rcidm_transition_rcid.exit
  %49 = trunc nuw nsw i32 %2 to i8
  %50 = load i8, ptr %4, align 8
  %51 = and i8 %50, -4
  %52 = or disjoint i8 %51, %49
  store i8 %52, ptr %4, align 8
  br i1 %13, label %62, label %63

.thread30:                                        ; preds = %rcidm_transition_rcid.exit
  %53 = getelementptr inbounds nuw i8, ptr %0, i64 88
  %54 = load ptr, ptr %53, align 8, !tbaa !3
  %55 = getelementptr inbounds nuw i8, ptr %1, i64 48
  %56 = load i64, ptr %55, align 8, !tbaa !30
  %57 = tail call ptr @ossl_pqueue_remove(ptr noundef %54, i64 noundef %56) #9
  store i64 -1, ptr %55, align 8, !tbaa !30
  %58 = trunc nuw nsw i32 %2 to i8
  %59 = load i8, ptr %4, align 8
  %60 = and i8 %59, -4
  %61 = or disjoint i8 %60, %58
  store i8 %61, ptr %4, align 8
  br i1 %13, label %62, label %.thread31

62:                                               ; preds = %.thread30, %48
  store ptr %1, ptr %10, align 8, !tbaa !19
  br label %81

63:                                               ; preds = %48
  %64 = icmp eq i8 %6, 1
  br i1 %64, label %65, label %.thread31

65:                                               ; preds = %63
  store ptr null, ptr %10, align 8, !tbaa !19
  br label %.thread31

.thread31:                                        ; preds = %.thread30, %65, %63
  %66 = getelementptr inbounds nuw i8, ptr %0, i64 104
  %67 = getelementptr inbounds nuw i8, ptr %0, i64 112
  %68 = load ptr, ptr %67, align 8, !tbaa !31
  %.not.i = icmp eq ptr %68, null
  br i1 %.not.i, label %70, label %69

69:                                               ; preds = %.thread31
  store ptr %1, ptr %68, align 8, !tbaa !24
  br label %70

70:                                               ; preds = %69, %.thread31
  %71 = getelementptr inbounds nuw i8, ptr %1, i64 8
  store ptr %68, ptr %71, align 8, !tbaa !32
  store ptr null, ptr %1, align 8, !tbaa !24
  store ptr %1, ptr %67, align 8, !tbaa !31
  %72 = load ptr, ptr %66, align 8, !tbaa !23
  %73 = icmp eq ptr %72, null
  br i1 %73, label %74, label %ossl_list_retiring_insert_tail.exit

74:                                               ; preds = %70
  store ptr %1, ptr %66, align 8, !tbaa !23
  br label %ossl_list_retiring_insert_tail.exit

ossl_list_retiring_insert_tail.exit:              ; preds = %70, %74
  %75 = getelementptr inbounds nuw i8, ptr %0, i64 120
  %76 = load i64, ptr %75, align 8, !tbaa !33
  %77 = add i64 %76, 1
  store i64 %77, ptr %75, align 8, !tbaa !33
  %78 = getelementptr inbounds nuw i8, ptr %0, i64 128
  %79 = load i64, ptr %78, align 8, !tbaa !28
  %80 = add i64 %79, 1
  store i64 %80, ptr %78, align 8, !tbaa !28
  br label %81

81:                                               ; preds = %62, %ossl_list_retiring_insert_tail.exit, %3
  ret void
}